S'Day_15_Surfer_Girl_Evening'
p0
.S'/Volumes/TA_VR_M1/Queensland/Gold_Coast/Day_15/Source_GoPro_Material'
p0
.I1
.S'H02'
p0
.I6
.(lp0
(lp1
I4
aI2
aa(lp2
I13
aI1
aa(lp3
I15
aI1
aa(lp4
I16
aI0
aa(lp5
I17
aI0
aa(lp6
I18
aI0
aa(lp7
I21
aI0
aa(lp8
I22
aI0
aa(lp9
I23
aI0
aa(lp10
I24
aI1
aa(lp11
I25
aI1
aa(lp12
I63
aI0
aa(lp13
I62
aI0
aa(lp14
I61
aI0
aa(lp15
I67
aI0
aa(lp16
I65
aI0
aa(lp17
I66
aI0
aa(lp18
I64
aI0
aa(lp19
I60
aI0
aa(lp20
I68
aI0
aa(lp21
I69
aI0
aa(lp22
I51
aI0
aa(lp23
I52
aI0
aa(lp24
I53
aI0
aa(lp25
I3
aI0
aa(lp26
I26
aI0
aa(lp27
I47
aI0
aa(lp28
I38
aI0
aa(lp29
I43
aI0
aa.